; Function Attrs: nounwind sspstrong uwtable
define internal noundef i32 @wmap_inspect_i(ptr noundef readonly captures(none) %0, i64 noundef %1) #0 {
  %3 = inttoptr i64 %1 to ptr
  %4 = load i64, ptr %3, align 8, !tbaa !25, !noalias !45
  %5 = and i64 %4, 8192
  %.not.i.i = icmp eq i64 %5, 0
  %6 = getelementptr inbounds nuw i8, ptr %3, i64 24
  br i1 %.not.i.i, label %RSTRING_PTR.exit, label %7

7:                                                ; preds = %2
  %.sroa.2.0.copyload.i = load ptr, ptr %6, align 8
  br label %RSTRING_PTR.exit

RSTRING_PTR.exit:                                 ; preds = %2, %7
  %.sroa.2.0.i = phi ptr [ %.sroa.2.0.copyload.i, %7 ], [ %6, %2 ]
  %8 = load i8, ptr %.sroa.2.0.i, align 1, !tbaa !29
  %9 = icmp eq i8 %8, 35
  br i1 %9, label %10, label %12

10:                                               ; preds = %RSTRING_PTR.exit
  %11 = tail call i64 @rb_str_cat(i64 noundef %1, ptr noundef nonnull @.str.24, i64 noundef 2) #10
  br label %17

12:                                               ; preds = %RSTRING_PTR.exit
  %13 = tail call i64 @rb_str_cat(i64 noundef %1, ptr noundef nonnull @.str.25, i64 noundef 2) #10
  %14 = load i64, ptr %3, align 8, !tbaa !25, !noalias !48
  %15 = and i64 %14, 8192
  %.not.i.i9 = icmp eq i64 %15, 0
  br i1 %.not.i.i9, label %RSTRING_PTR.exit12, label %16

16:                                               ; preds = %12
  %.sroa.2.0.copyload.i10 = load ptr, ptr %6, align 8
  br label %RSTRING_PTR.exit12

RSTRING_PTR.exit12:                               ; preds = %12, %16
  %.sroa.2.0.i11 = phi ptr [ %.sroa.2.0.copyload.i10, %16 ], [ %6, %12 ]
  store i8 35, ptr %.sroa.2.0.i11, align 1, !tbaa !29
  br label %17

17:                                               ; preds = %RSTRING_PTR.exit12, %10
  %18 = load i64, ptr %0, align 8, !tbaa !38
  %19 = icmp eq i64 %18, 0
  %20 = and i64 %18, 7
  %21 = icmp ne i64 %20, 0
  %22 = or i1 %19, %21
  br i1 %22, label %23, label %25

23:                                               ; preds = %17
  %24 = tail call i64 @rb_inspect(i64 noundef %18) #10
  br label %wmap_inspect_append.exit

25:                                               ; preds = %17
  %26 = tail call i64 @rb_any_to_s(i64 noundef %18) #10
  br label %wmap_inspect_append.exit

wmap_inspect_append.exit:                         ; preds = %23, %25
  %.sink.i = phi i64 [ %26, %25 ], [ %24, %23 ]
  %27 = tail call i64 @rb_str_append(i64 noundef %1, i64 noundef %.sink.i) #10
  %28 = tail call i64 @rb_str_cat(i64 noundef %1, ptr noundef nonnull @.str.26, i64 noundef 4) #10
  %29 = getelementptr inbounds nuw i8, ptr %0, i64 8
  %30 = load i64, ptr %29, align 8, !tbaa !40
  %31 = icmp eq i64 %30, 0
  %32 = and i64 %30, 7
  %33 = icmp ne i64 %32, 0
  %34 = or i1 %31, %33
  br i1 %34, label %35, label %37

35:                                               ; preds = %wmap_inspect_append.exit
  %36 = tail call i64 @rb_inspect(i64 noundef %30) #10
  br label %wmap_inspect_append.exit14

37:                                               ; preds = %wmap_inspect_append.exit
  %38 = tail call i64 @rb_any_to_s(i64 noundef %30) #10
  br label %wmap_inspect_append.exit14

wmap_inspect_append.exit14:                       ; preds = %35, %37
  %.sink.i13 = phi i64 [ %38, %37 ], [ %36, %35 ]
  %39 = tail call i64 @rb_str_append(i64 noundef %1, i64 noundef %.sink.i13) #10
  ret i32 0
}